target datalayout = "e-m:e-p270:32:32-p271:32:32-p272:64:64-i64:64-i128:128-f80:128-n8:16:32:64-S128"
target triple = "x86_64-pc-linux-gnu"

%struct.Fraig_NodeStruct_t_ = type { i32, i32, i32, i32, i32, i32, i32, ptr, ptr, ptr, ptr, ptr, ptr, ptr, ptr, i32, i32, ptr, ptr, ptr, ptr, ptr, ptr, ptr }

; Function Attrs: nounwind uwtable
define i32 @Fraig_FindFirstDiff(ptr noundef %0, ptr noundef %1, i32 noundef %2, i32 noundef %3, i32 noundef %4) #0 {
  %6 = alloca i32, align 4
  %7 = alloca ptr, align 8
  %8 = alloca ptr, align 8
  %9 = alloca i32, align 4
  %10 = alloca i32, align 4
  %11 = alloca i32, align 4
  %12 = alloca i32, align 4
  %13 = alloca i32, align 4
  %14 = alloca i32, align 4
  store ptr %0, ptr %7, align 8, !tbaa !19
  store ptr %1, ptr %8, align 8, !tbaa !19
  store i32 %2, ptr %9, align 4, !tbaa !3
  store i32 %3, ptr %10, align 4, !tbaa !3
  store i32 %4, ptr %11, align 4, !tbaa !3
  call void @llvm.lifetime.start.p0(i64 4, ptr %12) #7
  call void @llvm.lifetime.start.p0(i64 4, ptr %13) #7
  %15 = load ptr, ptr %7, align 8, !tbaa !19
  %16 = getelementptr inbounds nuw %struct.Fraig_NodeStruct_t_, ptr %15, i32 0, i32 6
  %17 = load i32, ptr %16, align 8
  %18 = and i32 %17, 1
  %19 = load i32, ptr %9, align 4, !tbaa !3
  %20 = xor i32 %19, %18
  store i32 %20, ptr %9, align 4, !tbaa !3
  %21 = load ptr, ptr %8, align 8, !tbaa !19
  %22 = getelementptr inbounds nuw %struct.Fraig_NodeStruct_t_, ptr %21, i32 0, i32 6
  %23 = load i32, ptr %22, align 8
  %24 = and i32 %23, 1
  %25 = load i32, ptr %9, align 4, !tbaa !3
  %26 = xor i32 %25, %24
  store i32 %26, ptr %9, align 4, !tbaa !3
  %27 = load i32, ptr %9, align 4, !tbaa !3
  %28 = icmp ne i32 %27, 0
  br i1 %28, label %29, label %157

29:                                               ; preds = %5
  %30 = load i32, ptr %11, align 4, !tbaa !3
  %31 = icmp ne i32 %30, 0
  br i1 %31, label %32, label %94

32:                                               ; preds = %29
  store i32 0, ptr %12, align 4, !tbaa !3
  br label %33

33:                                               ; preds = %90, %32
  %34 = load i32, ptr %12, align 4, !tbaa !3
  %35 = load i32, ptr %10, align 4, !tbaa !3
  %36 = icmp slt i32 %34, %35
  br i1 %36, label %37, label %93

37:                                               ; preds = %33
  %38 = load ptr, ptr %7, align 8, !tbaa !19
  %39 = getelementptr inbounds nuw %struct.Fraig_NodeStruct_t_, ptr %38, i32 0, i32 17
  %40 = load ptr, ptr %39, align 8, !tbaa !51
  %41 = load i32, ptr %12, align 4, !tbaa !3
  %42 = sext i32 %41 to i64
  %43 = getelementptr inbounds i32, ptr %40, i64 %42
  %44 = load i32, ptr %43, align 4, !tbaa !3
  %45 = load ptr, ptr %8, align 8, !tbaa !19
  %46 = getelementptr inbounds nuw %struct.Fraig_NodeStruct_t_, ptr %45, i32 0, i32 17
  %47 = load ptr, ptr %46, align 8, !tbaa !51
  %48 = load i32, ptr %12, align 4, !tbaa !3
  %49 = sext i32 %48 to i64
  %50 = getelementptr inbounds i32, ptr %47, i64 %49
  %51 = load i32, ptr %50, align 4, !tbaa !3
  %52 = xor i32 %51, -1
  %53 = icmp ne i32 %44, %52
  br i1 %53, label %54, label %89

54:                                               ; preds = %37
  store i32 0, ptr %13, align 4, !tbaa !3
  br label %55

55:                                               ; preds = %85, %54
  %56 = load i32, ptr %13, align 4, !tbaa !3
  %57 = icmp slt i32 %56, 32
  br i1 %57, label %58, label %88

58:                                               ; preds = %55
  %59 = load ptr, ptr %7, align 8, !tbaa !19
  %60 = getelementptr inbounds nuw %struct.Fraig_NodeStruct_t_, ptr %59, i32 0, i32 17
  %61 = load ptr, ptr %60, align 8, !tbaa !51
  %62 = load i32, ptr %12, align 4, !tbaa !3
  %63 = sext i32 %62 to i64
  %64 = getelementptr inbounds i32, ptr %61, i64 %63
  %65 = load i32, ptr %64, align 4, !tbaa !3
  %66 = load ptr, ptr %8, align 8, !tbaa !19
  %67 = getelementptr inbounds nuw %struct.Fraig_NodeStruct_t_, ptr %66, i32 0, i32 17
  %68 = load ptr, ptr %67, align 8, !tbaa !51
  %69 = load i32, ptr %12, align 4, !tbaa !3
  %70 = sext i32 %69 to i64
  %71 = getelementptr inbounds i32, ptr %68, i64 %70
  %72 = load i32, ptr %71, align 4, !tbaa !3
  %73 = xor i32 %72, -1
  %74 = xor i32 %65, %73
  %75 = load i32, ptr %13, align 4, !tbaa !3
  %76 = shl i32 1, %75
  %77 = and i32 %74, %76
  %78 = icmp ne i32 %77, 0
  br i1 %78, label %79, label %84

79:                                               ; preds = %58
  %80 = load i32, ptr %12, align 4, !tbaa !3
  %81 = mul nsw i32 %80, 32
  %82 = load i32, ptr %13, align 4, !tbaa !3
  %83 = add nsw i32 %81, %82
  store i32 %83, ptr %6, align 4
  store i32 1, ptr %14, align 4
  br label %282

84:                                               ; preds = %58
  br label %85

85:                                               ; preds = %84
  %86 = load i32, ptr %13, align 4, !tbaa !3
  %87 = add nsw i32 %86, 1
  store i32 %87, ptr %13, align 4, !tbaa !3
  br label %55, !llvm.loop !60

88:                                               ; preds = %55
  br label %89

89:                                               ; preds = %88, %37
  br label %90

90:                                               ; preds = %89
  %91 = load i32, ptr %12, align 4, !tbaa !3
  %92 = add nsw i32 %91, 1
  store i32 %92, ptr %12, align 4, !tbaa !3
  br label %33, !llvm.loop !61

93:                                               ; preds = %33
  br label %156

94:                                               ; preds = %29
  store i32 0, ptr %12, align 4, !tbaa !3
  br label %95

95:                                               ; preds = %152, %94
  %96 = load i32, ptr %12, align 4, !tbaa !3
  %97 = load i32, ptr %10, align 4, !tbaa !3
  %98 = icmp slt i32 %96, %97
  br i1 %98, label %99, label %155

99:                                               ; preds = %95
  %100 = load ptr, ptr %7, align 8, !tbaa !19
  %101 = getelementptr inbounds nuw %struct.Fraig_NodeStruct_t_, ptr %100, i32 0, i32 18
  %102 = load ptr, ptr %101, align 8, !tbaa !54
  %103 = load i32, ptr %12, align 4, !tbaa !3
  %104 = sext i32 %103 to i64
  %105 = getelementptr inbounds i32, ptr %102, i64 %104
  %106 = load i32, ptr %105, align 4, !tbaa !3
  %107 = load ptr, ptr %8, align 8, !tbaa !19
  %108 = getelementptr inbounds nuw %struct.Fraig_NodeStruct_t_, ptr %107, i32 0, i32 18
  %109 = load ptr, ptr %108, align 8, !tbaa !54
  %110 = load i32, ptr %12, align 4, !tbaa !3
  %111 = sext i32 %110 to i64
  %112 = getelementptr inbounds i32, ptr %109, i64 %111
  %113 = load i32, ptr %112, align 4, !tbaa !3
  %114 = xor i32 %113, -1
  %115 = icmp ne i32 %106, %114
  br i1 %115, label %116, label %151

116:                                              ; preds = %99
  store i32 0, ptr %13, align 4, !tbaa !3
  br label %117

117:                                              ; preds = %147, %116
  %118 = load i32, ptr %13, align 4, !tbaa !3
  %119 = icmp slt i32 %118, 32
  br i1 %119, label %120, label %150

120:                                              ; preds = %117
  %121 = load ptr, ptr %7, align 8, !tbaa !19
  %122 = getelementptr inbounds nuw %struct.Fraig_NodeStruct_t_, ptr %121, i32 0, i32 18
  %123 = load ptr, ptr %122, align 8, !tbaa !54
  %124 = load i32, ptr %12, align 4, !tbaa !3
  %125 = sext i32 %124 to i64
  %126 = getelementptr inbounds i32, ptr %123, i64 %125
  %127 = load i32, ptr %126, align 4, !tbaa !3
  %128 = load ptr, ptr %8, align 8, !tbaa !19
  %129 = getelementptr inbounds nuw %struct.Fraig_NodeStruct_t_, ptr %128, i32 0, i32 18
  %130 = load ptr, ptr %129, align 8, !tbaa !54
  %131 = load i32, ptr %12, align 4, !tbaa !3
  %132 = sext i32 %131 to i64
  %133 = getelementptr inbounds i32, ptr %130, i64 %132
  %134 = load i32, ptr %133, align 4, !tbaa !3
  %135 = xor i32 %134, -1
  %136 = xor i32 %127, %135
  %137 = load i32, ptr %13, align 4, !tbaa !3
  %138 = shl i32 1, %137
  %139 = and i32 %136, %138
  %140 = icmp ne i32 %139, 0
  br i1 %140, label %141, label %146

141:                                              ; preds = %120
  %142 = load i32, ptr %12, align 4, !tbaa !3
  %143 = mul nsw i32 %142, 32
  %144 = load i32, ptr %13, align 4, !tbaa !3
  %145 = add nsw i32 %143, %144
  store i32 %145, ptr %6, align 4
  store i32 1, ptr %14, align 4
  br label %282

146:                                              ; preds = %120
  br label %147

147:                                              ; preds = %146
  %148 = load i32, ptr %13, align 4, !tbaa !3
  %149 = add nsw i32 %148, 1
  store i32 %149, ptr %13, align 4, !tbaa !3
  br label %117, !llvm.loop !62

150:                                              ; preds = %117
  br label %151

151:                                              ; preds = %150, %99
  br label %152

152:                                              ; preds = %151
  %153 = load i32, ptr %12, align 4, !tbaa !3
  %154 = add nsw i32 %153, 1
  store i32 %154, ptr %12, align 4, !tbaa !3
  br label %95, !llvm.loop !63

155:                                              ; preds = %95
  br label %156

156:                                              ; preds = %155, %93
  br label %281

157:                                              ; preds = %5
  %158 = load i32, ptr %11, align 4, !tbaa !3
  %159 = icmp ne i32 %158, 0
  br i1 %159, label %160, label %220

160:                                              ; preds = %157
  store i32 0, ptr %12, align 4, !tbaa !3
  br label %161

161:                                              ; preds = %216, %160
  %162 = load i32, ptr %12, align 4, !tbaa !3
  %163 = load i32, ptr %10, align 4, !tbaa !3
  %164 = icmp slt i32 %162, %163
  br i1 %164, label %165, label %219

165:                                              ; preds = %161
  %166 = load ptr, ptr %7, align 8, !tbaa !19
  %167 = getelementptr inbounds nuw %struct.Fraig_NodeStruct_t_, ptr %166, i32 0, i32 17
  %168 = load ptr, ptr %167, align 8, !tbaa !51
  %169 = load i32, ptr %12, align 4, !tbaa !3
  %170 = sext i32 %169 to i64
  %171 = getelementptr inbounds i32, ptr %168, i64 %170
  %172 = load i32, ptr %171, align 4, !tbaa !3
  %173 = load ptr, ptr %8, align 8, !tbaa !19
  %174 = getelementptr inbounds nuw %struct.Fraig_NodeStruct_t_, ptr %173, i32 0, i32 17
  %175 = load ptr, ptr %174, align 8, !tbaa !51
  %176 = load i32, ptr %12, align 4, !tbaa !3
  %177 = sext i32 %176 to i64
  %178 = getelementptr inbounds i32, ptr %175, i64 %177
  %179 = load i32, ptr %178, align 4, !tbaa !3
  %180 = icmp ne i32 %172, %179
  br i1 %180, label %181, label %215

181:                                              ; preds = %165
  store i32 0, ptr %13, align 4, !tbaa !3
  br label %182

182:                                              ; preds = %211, %181
  %183 = load i32, ptr %13, align 4, !tbaa !3
  %184 = icmp slt i32 %183, 32
  br i1 %184, label %185, label %214

185:                                              ; preds = %182
  %186 = load ptr, ptr %7, align 8, !tbaa !19
  %187 = getelementptr inbounds nuw %struct.Fraig_NodeStruct_t_, ptr %186, i32 0, i32 17
  %188 = load ptr, ptr %187, align 8, !tbaa !51
  %189 = load i32, ptr %12, align 4, !tbaa !3
  %190 = sext i32 %189 to i64
  %191 = getelementptr inbounds i32, ptr %188, i64 %190
  %192 = load i32, ptr %191, align 4, !tbaa !3
  %193 = load ptr, ptr %8, align 8, !tbaa !19
  %194 = getelementptr inbounds nuw %struct.Fraig_NodeStruct_t_, ptr %193, i32 0, i32 17
  %195 = load ptr, ptr %194, align 8, !tbaa !51
  %196 = load i32, ptr %12, align 4, !tbaa !3
  %197 = sext i32 %196 to i64
  %198 = getelementptr inbounds i32, ptr %195, i64 %197
  %199 = load i32, ptr %198, align 4, !tbaa !3
  %200 = xor i32 %192, %199
  %201 = load i32, ptr %13, align 4, !tbaa !3
  %202 = shl i32 1, %201
  %203 = and i32 %200, %202
  %204 = icmp ne i32 %203, 0
  br i1 %204, label %205, label %210

205:                                              ; preds = %185
  %206 = load i32, ptr %12, align 4, !tbaa !3
  %207 = mul nsw i32 %206, 32
  %208 = load i32, ptr %13, align 4, !tbaa !3
  %209 = add nsw i32 %207, %208
  store i32 %209, ptr %6, align 4
  store i32 1, ptr %14, align 4
  br label %282

210:                                              ; preds = %185
  br label %211

211:                                              ; preds = %210
  %212 = load i32, ptr %13, align 4, !tbaa !3
  %213 = add nsw i32 %212, 1
  store i32 %213, ptr %13, align 4, !tbaa !3
  br label %182, !llvm.loop !64

214:                                              ; preds = %182
  br label %215

215:                                              ; preds = %214, %165
  br label %216

216:                                              ; preds = %215
  %217 = load i32, ptr %12, align 4, !tbaa !3
  %218 = add nsw i32 %217, 1
  store i32 %218, ptr %12, align 4, !tbaa !3
  br label %161, !llvm.loop !65

219:                                              ; preds = %161
  br label %280

220:                                              ; preds = %157
  store i32 0, ptr %12, align 4, !tbaa !3
  br label %221

221:                                              ; preds = %276, %220
  %222 = load i32, ptr %12, align 4, !tbaa !3
  %223 = load i32, ptr %10, align 4, !tbaa !3
  %224 = icmp slt i32 %222, %223
  br i1 %224, label %225, label %279

225:                                              ; preds = %221
  %226 = load ptr, ptr %7, align 8, !tbaa !19
  %227 = getelementptr inbounds nuw %struct.Fraig_NodeStruct_t_, ptr %226, i32 0, i32 18
  %228 = load ptr, ptr %227, align 8, !tbaa !54
  %229 = load i32, ptr %12, align 4, !tbaa !3
  %230 = sext i32 %229 to i64
  %231 = getelementptr inbounds i32, ptr %228, i64 %230
  %232 = load i32, ptr %231, align 4, !tbaa !3
  %233 = load ptr, ptr %8, align 8, !tbaa !19
  %234 = getelementptr inbounds nuw %struct.Fraig_NodeStruct_t_, ptr %233, i32 0, i32 18
  %235 = load ptr, ptr %234, align 8, !tbaa !54
  %236 = load i32, ptr %12, align 4, !tbaa !3
  %237 = sext i32 %236 to i64
  %238 = getelementptr inbounds i32, ptr %235, i64 %237
  %239 = load i32, ptr %238, align 4, !tbaa !3
  %240 = icmp ne i32 %232, %239
  br i1 %240, label %241, label %275

241:                                              ; preds = %225
  store i32 0, ptr %13, align 4, !tbaa !3
  br label %242

242:                                              ; preds = %271, %241
  %243 = load i32, ptr %13, align 4, !tbaa !3
  %244 = icmp slt i32 %243, 32
  br i1 %244, label %245, label %274

245:                                              ; preds = %242
  %246 = load ptr, ptr %7, align 8, !tbaa !19
  %247 = getelementptr inbounds nuw %struct.Fraig_NodeStruct_t_, ptr %246, i32 0, i32 18
  %248 = load ptr, ptr %247, align 8, !tbaa !54
  %249 = load i32, ptr %12, align 4, !tbaa !3
  %250 = sext i32 %249 to i64
  %251 = getelementptr inbounds i32, ptr %248, i64 %250
  %252 = load i32, ptr %251, align 4, !tbaa !3
  %253 = load ptr, ptr %8, align 8, !tbaa !19
  %254 = getelementptr inbounds nuw %struct.Fraig_NodeStruct_t_, ptr %253, i32 0, i32 18
  %255 = load ptr, ptr %254, align 8, !tbaa !54
  %256 = load i32, ptr %12, align 4, !tbaa !3
  %257 = sext i32 %256 to i64
  %258 = getelementptr inbounds i32, ptr %255, i64 %257
  %259 = load i32, ptr %258, align 4, !tbaa !3
  %260 = xor i32 %252, %259
  %261 = load i32, ptr %13, align 4, !tbaa !3
  %262 = shl i32 1, %261
  %263 = and i32 %260, %262
  %264 = icmp ne i32 %263, 0
  br i1 %264, label %265, label %270

265:                                              ; preds = %245
  %266 = load i32, ptr %12, align 4, !tbaa !3
  %267 = mul nsw i32 %266, 32
  %268 = load i32, ptr %13, align 4, !tbaa !3
  %269 = add nsw i32 %267, %268
  store i32 %269, ptr %6, align 4
  store i32 1, ptr %14, align 4
  br label %282

270:                                              ; preds = %245
  br label %271

271:                                              ; preds = %270
  %272 = load i32, ptr %13, align 4, !tbaa !3
  %273 = add nsw i32 %272, 1
  store i32 %273, ptr %13, align 4, !tbaa !3
  br label %242, !llvm.loop !66

274:                                              ; preds = %242
  br label %275

275:                                              ; preds = %274, %225
  br label %276

276:                                              ; preds = %275
  %277 = load i32, ptr %12, align 4, !tbaa !3
  %278 = add nsw i32 %277, 1
  store i32 %278, ptr %12, align 4, !tbaa !3
  br label %221, !llvm.loop !67

279:                                              ; preds = %221
  br label %280

280:                                              ; preds = %279, %219
  br label %281

281:                                              ; preds = %280, %156
  store i32 -1, ptr %6, align 4
  store i32 1, ptr %14, align 4
  br label %282

282:                                              ; preds = %281, %265, %205, %141, %79
  call void @llvm.lifetime.end.p0(i64 4, ptr %13) #7
  call void @llvm.lifetime.end.p0(i64 4, ptr %12) #7
  %283 = load i32, ptr %6, align 4
  ret i32 %283
}