; Function Attrs: nofree norecurse nosync nounwind memory(read, inaccessiblemem: none) uwtable
define i32 @Fraig_FindFirstDiff(ptr noundef readonly captures(none) %0, ptr noundef readonly captures(none) %1, i32 noundef %2, i32 noundef %3, i32 noundef %4) local_unnamed_addr #6 {
  %6 = getelementptr inbounds nuw i8, ptr %0, i64 24
  %7 = load i32, ptr %6, align 8
  %8 = and i32 %7, 1
  %9 = xor i32 %8, %2
  %10 = getelementptr inbounds nuw i8, ptr %1, i64 24
  %11 = load i32, ptr %10, align 8
  %12 = and i32 %11, 1
  %.not = icmp eq i32 %9, %12
  %.not76 = icmp eq i32 %4, 0
  %13 = icmp sgt i32 %3, 0
  br i1 %.not, label %51, label %14

14:                                               ; preds = %5
  br i1 %.not76, label %.preheader94, label %.preheader98

.preheader98:                                     ; preds = %14
  br i1 %13, label %.lr.ph, label %.loopexit87

.lr.ph:                                           ; preds = %.preheader98
  %15 = getelementptr inbounds nuw i8, ptr %0, i64 104
  %16 = load ptr, ptr %15, align 8, !tbaa !40
  %17 = getelementptr inbounds nuw i8, ptr %1, i64 104
  %18 = load ptr, ptr %17, align 8, !tbaa !40
  %wide.trip.count = zext nneg i32 %3 to i64
  br label %23

.preheader94:                                     ; preds = %14
  br i1 %13, label %.lr.ph112, label %.loopexit87

.lr.ph112:                                        ; preds = %.preheader94
  %19 = getelementptr inbounds nuw i8, ptr %0, i64 112
  %20 = load ptr, ptr %19, align 8, !tbaa !46
  %21 = getelementptr inbounds nuw i8, ptr %1, i64 112
  %22 = load ptr, ptr %21, align 8, !tbaa !46
  %wide.trip.count136 = zext nneg i32 %3 to i64
  br label %37

23:                                               ; preds = %.lr.ph, %.loopexit97
  %indvars.iv = phi i64 [ 0, %.lr.ph ], [ %indvars.iv.next, %.loopexit97 ]
  %24 = getelementptr inbounds nuw i32, ptr %16, i64 %indvars.iv
  %25 = load i32, ptr %24, align 4, !tbaa !41
  %26 = getelementptr inbounds nuw i32, ptr %18, i64 %indvars.iv
  %27 = load i32, ptr %26, align 4, !tbaa !41
  %28 = xor i32 %27, %25
  %.not84 = icmp eq i32 %28, -1
  br i1 %.not84, label %.loopexit97, label %.preheader96

.preheader96:                                     ; preds = %23, %35
  %.0108 = phi i32 [ %36, %35 ], [ 0, %23 ]
  %29 = shl nuw i32 1, %.0108
  %30 = and i32 %29, %28
  %.not85.not = icmp eq i32 %30, 0
  br i1 %.not85.not, label %31, label %35

31:                                               ; preds = %.preheader96
  %32 = trunc nuw nsw i64 %indvars.iv to i32
  %33 = shl nsw i32 %32, 5
  %34 = add nuw nsw i32 %.0108, %33
  br label %.loopexit87

35:                                               ; preds = %.preheader96
  %36 = add nuw nsw i32 %.0108, 1
  %exitcond.not = icmp eq i32 %36, 32
  br i1 %exitcond.not, label %.loopexit97, label %.preheader96, !llvm.loop !55

.loopexit97:                                      ; preds = %35, %23
  %indvars.iv.next = add nuw nsw i64 %indvars.iv, 1
  %exitcond131.not = icmp eq i64 %indvars.iv.next, %wide.trip.count
  br i1 %exitcond131.not, label %.loopexit87, label %23, !llvm.loop !56

37:                                               ; preds = %.lr.ph112, %.loopexit93
  %indvars.iv133 = phi i64 [ 0, %.lr.ph112 ], [ %indvars.iv.next134, %.loopexit93 ]
  %38 = getelementptr inbounds nuw i32, ptr %20, i64 %indvars.iv133
  %39 = load i32, ptr %38, align 4, !tbaa !41
  %40 = getelementptr inbounds nuw i32, ptr %22, i64 %indvars.iv133
  %41 = load i32, ptr %40, align 4, !tbaa !41
  %42 = xor i32 %41, %39
  %.not82 = icmp eq i32 %42, -1
  br i1 %.not82, label %.loopexit93, label %.preheader92

.preheader92:                                     ; preds = %37, %49
  %.1110 = phi i32 [ %50, %49 ], [ 0, %37 ]
  %43 = shl nuw i32 1, %.1110
  %44 = and i32 %43, %42
  %.not83.not = icmp eq i32 %44, 0
  br i1 %.not83.not, label %45, label %49

45:                                               ; preds = %.preheader92
  %46 = trunc nuw nsw i64 %indvars.iv133 to i32
  %47 = shl nsw i32 %46, 5
  %48 = add nuw nsw i32 %.1110, %47
  br label %.loopexit87

49:                                               ; preds = %.preheader92
  %50 = add nuw nsw i32 %.1110, 1
  %exitcond132.not = icmp eq i32 %50, 32
  br i1 %exitcond132.not, label %.loopexit93, label %.preheader92, !llvm.loop !57

.loopexit93:                                      ; preds = %49, %37
  %indvars.iv.next134 = add nuw nsw i64 %indvars.iv133, 1
  %exitcond137.not = icmp eq i64 %indvars.iv.next134, %wide.trip.count136
  br i1 %exitcond137.not, label %.loopexit87, label %37, !llvm.loop !58

51:                                               ; preds = %5
  br i1 %.not76, label %.preheader86, label %.preheader90

.preheader90:                                     ; preds = %51
  br i1 %13, label %.lr.ph115, label %.loopexit87

.lr.ph115:                                        ; preds = %.preheader90
  %52 = getelementptr inbounds nuw i8, ptr %0, i64 104
  %53 = load ptr, ptr %52, align 8, !tbaa !40
  %54 = getelementptr inbounds nuw i8, ptr %1, i64 104
  %55 = load ptr, ptr %54, align 8, !tbaa !40
  %wide.trip.count142 = zext nneg i32 %3 to i64
  br label %60

.preheader86:                                     ; preds = %51
  br i1 %13, label %.lr.ph118, label %.loopexit87

.lr.ph118:                                        ; preds = %.preheader86
  %56 = getelementptr inbounds nuw i8, ptr %0, i64 112
  %57 = load ptr, ptr %56, align 8, !tbaa !46
  %58 = getelementptr inbounds nuw i8, ptr %1, i64 112
  %59 = load ptr, ptr %58, align 8, !tbaa !46
  %wide.trip.count148 = zext nneg i32 %3 to i64
  br label %75

60:                                               ; preds = %.lr.ph115, %.loopexit89
  %indvars.iv139 = phi i64 [ 0, %.lr.ph115 ], [ %indvars.iv.next140, %.loopexit89 ]
  %61 = getelementptr inbounds nuw i32, ptr %53, i64 %indvars.iv139
  %62 = load i32, ptr %61, align 4, !tbaa !41
  %63 = getelementptr inbounds nuw i32, ptr %55, i64 %indvars.iv139
  %64 = load i32, ptr %63, align 4, !tbaa !41
  %.not79 = icmp eq i32 %62, %64
  br i1 %.not79, label %.loopexit89, label %.preheader88

.preheader88:                                     ; preds = %60
  %65 = xor i32 %64, %62
  br label %66

66:                                               ; preds = %.preheader88, %73
  %.2113 = phi i32 [ 0, %.preheader88 ], [ %74, %73 ]
  %67 = shl nuw i32 1, %.2113
  %68 = and i32 %67, %65
  %.not80 = icmp eq i32 %68, 0
  br i1 %.not80, label %73, label %69

69:                                               ; preds = %66
  %70 = trunc nuw nsw i64 %indvars.iv139 to i32
  %71 = shl nsw i32 %70, 5
  %72 = add nuw nsw i32 %.2113, %71
  br label %.loopexit87

73:                                               ; preds = %66
  %74 = add nuw nsw i32 %.2113, 1
  %exitcond138.not = icmp eq i32 %74, 32
  br i1 %exitcond138.not, label %.loopexit89, label %66, !llvm.loop !59

.loopexit89:                                      ; preds = %73, %60
  %indvars.iv.next140 = add nuw nsw i64 %indvars.iv139, 1
  %exitcond143.not = icmp eq i64 %indvars.iv.next140, %wide.trip.count142
  br i1 %exitcond143.not, label %.loopexit87, label %60, !llvm.loop !60

75:                                               ; preds = %.lr.ph118, %.loopexit
  %indvars.iv145 = phi i64 [ 0, %.lr.ph118 ], [ %indvars.iv.next146, %.loopexit ]
  %76 = getelementptr inbounds nuw i32, ptr %57, i64 %indvars.iv145
  %77 = load i32, ptr %76, align 4, !tbaa !41
  %78 = getelementptr inbounds nuw i32, ptr %59, i64 %indvars.iv145
  %79 = load i32, ptr %78, align 4, !tbaa !41
  %.not77 = icmp eq i32 %77, %79
  br i1 %.not77, label %.loopexit, label %.preheader

.preheader:                                       ; preds = %75
  %80 = xor i32 %79, %77
  br label %81

81:                                               ; preds = %.preheader, %88
  %.3116 = phi i32 [ 0, %.preheader ], [ %89, %88 ]
  %82 = shl nuw i32 1, %.3116
  %83 = and i32 %82, %80
  %.not78 = icmp eq i32 %83, 0
  br i1 %.not78, label %88, label %84

84:                                               ; preds = %81
  %85 = trunc nuw nsw i64 %indvars.iv145 to i32
  %86 = shl nsw i32 %85, 5
  %87 = add nuw nsw i32 %.3116, %86
  br label %.loopexit87

88:                                               ; preds = %81
  %89 = add nuw nsw i32 %.3116, 1
  %exitcond144.not = icmp eq i32 %89, 32
  br i1 %exitcond144.not, label %.loopexit, label %81, !llvm.loop !61

.loopexit:                                        ; preds = %88, %75
  %indvars.iv.next146 = add nuw nsw i64 %indvars.iv145, 1
  %exitcond149.not = icmp eq i64 %indvars.iv.next146, %wide.trip.count148
  br i1 %exitcond149.not, label %.loopexit87, label %75, !llvm.loop !62

.loopexit87:                                      ; preds = %.loopexit97, %.loopexit93, %.loopexit89, %.loopexit, %.preheader98, %.preheader94, %.preheader90, %.preheader86, %84, %69, %45, %31
  %.075 = phi i32 [ %34, %31 ], [ %48, %45 ], [ %72, %69 ], [ %87, %84 ], [ -1, %.preheader86 ], [ -1, %.preheader90 ], [ -1, %.preheader94 ], [ -1, %.preheader98 ], [ -1, %.loopexit ], [ -1, %.loopexit89 ], [ -1, %.loopexit93 ], [ -1, %.loopexit97 ]
  ret i32 %.075
}